target datalayout = "e-m:e-p270:32:32-p271:32:32-p272:64:64-i64:64-i128:128-f80:128-n8:16:32:64-S128"
target triple = "x86_64-pc-linux-gnu"

%struct.UConverter = type { ptr, ptr, ptr, ptr, ptr, ptr, ptr, i32, i8, i8, i8, i8, i8, [7 x i8], i32, i32, i32, i32, i8, i8, i8, i8, i8, i8, i8, i8, [8 x i8], [32 x i8], [2 x i16], [2 x i16], [32 x i16], i32, [19 x i16], [31 x i8], i8, i8, i8, i32 }

; Function Attrs: mustprogress nounwind uwtable
define internal void @_ZL10_UTF7ResetP10UConverter21UConverterResetChoice(ptr noundef %0, i32 noundef %1) #1 {
  %3 = alloca ptr, align 8
  %4 = alloca i32, align 4
  store ptr %0, ptr %3, align 8, !tbaa !3
  store i32 %1, ptr %4, align 4, !tbaa !18
  %5 = load i32, ptr %4, align 4, !tbaa !18
  %6 = icmp sle i32 %5, 1
  br i1 %6, label %7, label %12

7:                                                ; preds = %2
  %8 = load ptr, ptr %3, align 8, !tbaa !3
  %9 = getelementptr inbounds nuw %struct.UConverter, ptr %8, i32 0, i32 14
  store i32 16777216, ptr %9, align 8, !tbaa !20
  %10 = load ptr, ptr %3, align 8, !tbaa !3
  %11 = getelementptr inbounds nuw %struct.UConverter, ptr %10, i32 0, i32 12
  store i8 0, ptr %11, align 8, !tbaa !21
  br label %12

12:                                               ; preds = %7, %2
  %13 = load i32, ptr %4, align 4, !tbaa !18
  %14 = icmp ne i32 %13, 1
  br i1 %14, label %15, label %23

15:                                               ; preds = %12
  %16 = load ptr, ptr %3, align 8, !tbaa !3
  %17 = getelementptr inbounds nuw %struct.UConverter, ptr %16, i32 0, i32 16
  %18 = load i32, ptr %17, align 8, !tbaa !15
  %19 = and i32 %18, -268435456
  %20 = or i32 %19, 16777216
  %21 = load ptr, ptr %3, align 8, !tbaa !3
  %22 = getelementptr inbounds nuw %struct.UConverter, ptr %21, i32 0, i32 16
  store i32 %20, ptr %22, align 8, !tbaa !15
  br label %23

23:                                               ; preds = %15, %12
  ret void
}