; Function Attrs: mustprogress nofree norecurse nosync nounwind willreturn memory(argmem: readwrite) uwtable
define internal void @_ZL10_UTF7ResetP10UConverter21UConverterResetChoice(ptr noundef captures(none) %0, i32 noundef %1) #0 {
  %3 = icmp slt i32 %1, 2
  br i1 %3, label %4, label %.thread

4:                                                ; preds = %2
  %5 = getelementptr inbounds nuw i8, ptr %0, i64 72
  store i32 16777216, ptr %5, align 8, !tbaa !12
  %6 = getelementptr inbounds nuw i8, ptr %0, i64 64
  store i8 0, ptr %6, align 8, !tbaa !13
  %.not = icmp eq i32 %1, 1
  br i1 %.not, label %11, label %.thread

.thread:                                          ; preds = %2, %4
  %7 = getelementptr inbounds nuw i8, ptr %0, i64 80
  %8 = load i32, ptr %7, align 8, !tbaa !14
  %9 = and i32 %8, -268435456
  %10 = or disjoint i32 %9, 16777216
  store i32 %10, ptr %7, align 8, !tbaa !14
  br label %11

11:                                               ; preds = %.thread, %4
  ret void
}